((dp0
V\u22a5
p1
L0L
sV1
p2
L1L
sV2
p3
L2L
sV3
p4
L3L
sV5
p5
L4L
sV0
p6
L5L
sV8
p7
L6L
sV6
p8
L7L
sV9
p9
L8L
sV4
p10
L9L
sV7
p11
L10L
sVa
p12
L11L
sVi
p13
L12L
sVn
p14
L13L
sVo
p15
L14L
sVh
p16
L15L
sVe
p17
L16L
sVg
p18
L17L
sVw
p19
L18L
sVu
p20
L19L
sVl
p21
L20L
sVs
p22
L21L
sVq
p23
L22L
sVz
p24
L23L
sVy
p25
L24L
sVx
p26
L25L
sVc
p27
L26L
sVd
p28
L27L
sVj
p29
L28L
sVm
p30
L29L
sVb
p31
L30L
sVt
p32
L31L
sVf
p33
L32L
sVk
p34
L33L
sVr
p35
L34L
sVp
p36
L35L
sVv
p37
L36L
sVS
p38
L37L
sVA
p39
L38L
sVC
p40
L39L
sVN
p41
L40L
sVL
p42
L41L
sV.
p43
L42L
sVH
p44
L43L
sVZ
p45
L44L
sVB
p46
L45L
sVD
p47
L46L
sVX
p48
L47L
sVJ
p49
L48L
sVF
p50
L49L
sVP
p51
L50L
sVI
p52
L51L
sVV
p53
L52L
sVT
p54
L53L
sVO
p55
L54L
sVR
p56
L55L
sVW
p57
L56L
sVQ
p58
L57L
sVG
p59
L58L
sVE
p60
L59L
sVY
p61
L60L
sVM
p62
L61L
sVU
p63
L62L
sVK
p64
L63L
sV_
p65
L64L
sV*
p66
L65L
sV@
p67
L66L
sV+
p68
L67L
sV!
p69
L68L
sV-
p70
L69L
sV/
p71
L70L
sV`
p72
L71L
sV?
p73
L72L
sV#
p74
L73L
sV,
p75
L74L
sV$
p76
L75L
sV~
p77
L76L
sV=
p78
L77L
sV%
p79
L78L
sV&
p80
L79L
sV;
p81
L80L
sV^
p82
L81L
sV[
p83
L82L
sV]
p84
L83L
sV(
p85
L84L
sV)
p86
L85L
sV\u005c
p87
L86L
sV'
p88
L87L
sV>
p89
L88L
sV<
p90
L89L
sV{
p91
L90L
sV}
p92
L91L
sV:
p93
L92L
sV|
p94
L93L
s(dp95
L0L
g1
sL1L
g2
sL2L
g3
sL3L
g4
sL4L
g5
sL5L
g6
sL6L
g7
sL7L
g8
sL8L
g9
sL9L
g10
sL10L
g11
sL11L
g12
sL12L
g13
sL13L
g14
sL14L
g15
sL15L
g16
sL16L
g17
sL17L
g18
sL18L
g19
sL19L
g20
sL20L
g21
sL21L
g22
sL22L
g23
sL23L
g24
sL24L
g25
sL25L
g26
sL26L
g27
sL27L
g28
sL28L
g29
sL29L
g30
sL30L
g31
sL31L
g32
sL32L
g33
sL33L
g34
sL34L
g35
sL35L
g36
sL36L
g37
sL37L
g38
sL38L
g39
sL39L
g40
sL40L
g41
sL41L
g42
sL42L
g43
sL43L
g44
sL44L
g45
sL45L
g46
sL46L
g47
sL47L
g48
sL48L
g49
sL49L
g50
sL50L
g51
sL51L
g52
sL52L
g53
sL53L
g54
sL54L
g55
sL55L
g56
sL56L
g57
sL57L
g58
sL58L
g59
sL59L
g60
sL60L
g61
sL61L
g62
sL62L
g63
sL63L
g64
sL64L
g65
sL65L
g66
sL66L
g67
sL67L
g68
sL68L
g69
sL69L
g70
sL70L
g71
sL71L
g72
sL72L
g73
sL73L
g74
sL74L
g75
sL75L
g76
sL76L
g77
sL77L
g78
sL78L
g79
sL79L
g80
sL80L
g81
sL81L
g82
sL82L
g83
sL83L
g84
sL84L
g85
sL85L
g86
sL86L
g87
sL87L
g88
sL88L
g89
sL89L
g90
sL90L
g91
sL91L
g92
sL92L
g93
sL93L
g94
s(dp96
g12
F0.05486237942361223
sg2
F0.22667076340866718
sg5
F0.05861110607005101
sg24
F0.03591469258145691
sg18
F0.009189190548354856
sg21
F0.03608294251755692
sg7
F0.0638323202989011
sg30
F0.011419349464191188
sg3
F0.04841121333895114
sg32
F0.008307928212486004
sg19
F0.04559179701208229
sg8
F0.040575948283533614
sg23
F0.031353577841997236
sg10
F0.028900998851440006
sg25
F0.01844894986458012
sg4
F0.0436770930609091
sg26
F0.0195012499035214
sg11
F0.033451727792374986
sg14
F0.005053292265335069
sg20
F0.0009516124553492657
sg31
F0.007795799021023698
sg57
F0.0008468798765423731
sg16
F0.017818149259448836
sg6
F0.024094232645822625
sg27
F0.018240031327941317
sg17
F0.002085140371173134
sg22
F0.02220893690310356
sg29
F0.01366902274883444
sg37
F0.0012769065975621141
sg48
F0.0005597945404808909
sg9
F0.019004262113066144
sg33
F0.008692257419997101
sg28
F0.011344954349495895
sg13
F0.002597706859415426
sg35
F0.0035155928006081923
sg39
F0.0013603209583446393
sg36
F0.005599694591928857
sg34
F0.007127281568618533
sg45
F0.0009405160495570949
sg58
F0.000808999042975997
sg15
F0.002179541813552833
sg50
F0.0003893034583834494
sg42
F0.0010186281868822774
sg67
F2.006098978190479e-05
sg62
F0.0002992749838036205
sg46
F0.00040083716095560716
sg40
F0.000386789001898524
sg49
F0.0005036565663500565
sg64
F0.00017852641042970311
sg61
F0.0003475416158946884
sg44
F0.0005579906912634445
sg38
F0.0004925601605578857
sg54
F0.0004099657312378363
sg47
F0.0004483385236816978
sg56
F0.0002894358062539124
sg52
F0.00011489972894159093
sg51
F0.0003677665919690884
sg59
F0.0002168992028735646
sg41
F0.0003268246809428031
sg68
F1.109640579217077e-05
sg43
F7.045944367540947e-05
sg69
F2.9626856844120972e-05
sg55
F0.00011451709425910227
sg71
F1.0932419499675634e-05
sg66
F3.492908030146366e-05
sg53
F0.00023952931123789317
sg81
F4.372967799870254e-07
sg60
F6.302539841563004e-05
sg72
F1.913173412443236e-05
sg77
F3.225063752404312e-06
sg79
F1.6398629249513454e-07
sg70
F8.308638819753483e-06
sg73
F4.427629897368632e-06
sg83
F2.5691185824237744e-06
sg75
F6.559451699805381e-07
sg65
F7.762017844769702e-06
sg63
F2.7221724554192332e-05
sg78
F1.7491871199481016e-06
sg74
F2.241145997433505e-06
sg80
F4.919588774854036e-07
sg85
F8.199314624756726e-07
sg84
F2.186483899935127e-07
sg87
F1.6398629249513454e-07
sg76
F1.4212145349578325e-06
sg82
F7.106072674789163e-07
sg90
F1.0932419499675635e-07
sg88
F5.4662097498378176e-08
sg89
F1.0932419499675635e-07
sg91
F3.2797258499026907e-07
sg86
F1.0932419499675635e-07
stp97
.